target datalayout = "e-m:e-p270:32:32-p271:32:32-p272:64:64-i64:64-i128:128-f80:128-n8:16:32:64-S128"
target triple = "x86_64-pc-linux-gnu"

%struct.sort_support_t = type { i32, ptr }
%struct.job_resources = type { ptr, ptr, i32, ptr, ptr, ptr, ptr, ptr, i16, ptr, ptr, i32, i32, ptr, i32, ptr, i32, ptr, ptr, ptr, i16, i8 }

; Function Attrs: nounwind uwtable
define internal i32 @_compare_support(ptr noundef %0, ptr noundef %1) #0 {
  %3 = alloca i32, align 4
  %4 = alloca ptr, align 8
  %5 = alloca ptr, align 8
  %6 = alloca ptr, align 8
  %7 = alloca ptr, align 8
  %8 = alloca i32, align 4
  %9 = alloca i32, align 4
  store ptr %0, ptr %4, align 8
  store ptr %1, ptr %5, align 8
  call void @llvm.lifetime.start.p0(i64 8, ptr %6) #5
  call void @llvm.lifetime.start.p0(i64 8, ptr %7) #5
  call void @llvm.lifetime.start.p0(i64 4, ptr %8) #5
  %10 = load ptr, ptr %4, align 8
  store ptr %10, ptr %6, align 8
  %11 = load ptr, ptr %5, align 8
  store ptr %11, ptr %7, align 8
  %12 = load ptr, ptr %6, align 8
  %13 = getelementptr inbounds nuw %struct.sort_support_t, ptr %12, i32 0, i32 0
  %14 = load ptr, ptr %7, align 8
  %15 = getelementptr inbounds nuw %struct.sort_support_t, ptr %14, i32 0, i32 0
  %16 = call i32 @slurm_sort_int_list_asc(ptr noundef %13, ptr noundef %15)
  store i32 %16, ptr %8, align 4
  %17 = load i32, ptr %8, align 4
  %18 = icmp ne i32 %17, 0
  br i1 %18, label %19, label %21

19:                                               ; preds = %2
  %20 = load i32, ptr %8, align 4
  store i32 %20, ptr %3, align 4
  store i32 1, ptr %9, align 4
  br label %36

21:                                               ; preds = %2
  %22 = load ptr, ptr %6, align 8
  %23 = getelementptr inbounds nuw %struct.sort_support_t, ptr %22, i32 0, i32 1
  %24 = load ptr, ptr %23, align 8
  %25 = getelementptr inbounds nuw %struct.job_resources, ptr %24, i32 0, i32 16
  %26 = load ptr, ptr %7, align 8
  %27 = getelementptr inbounds nuw %struct.sort_support_t, ptr %26, i32 0, i32 1
  %28 = load ptr, ptr %27, align 8
  %29 = getelementptr inbounds nuw %struct.job_resources, ptr %28, i32 0, i32 16
  %30 = call i32 @slurm_sort_uint32_list_asc(ptr noundef %25, ptr noundef %29)
  store i32 %30, ptr %8, align 4
  %31 = load i32, ptr %8, align 4
  %32 = icmp ne i32 %31, 0
  br i1 %32, label %33, label %35

33:                                               ; preds = %21
  %34 = load i32, ptr %8, align 4
  store i32 %34, ptr %3, align 4
  store i32 1, ptr %9, align 4
  br label %36

35:                                               ; preds = %21
  store i32 0, ptr %3, align 4
  store i32 1, ptr %9, align 4
  br label %36

36:                                               ; preds = %35, %33, %19
  call void @llvm.lifetime.end.p0(i64 4, ptr %8) #5
  call void @llvm.lifetime.end.p0(i64 8, ptr %7) #5
  call void @llvm.lifetime.end.p0(i64 8, ptr %6) #5
  %37 = load i32, ptr %3, align 4
  ret i32 %37
}