; Function Attrs: nounwind uwtable
define internal i32 @_compare_support(ptr noundef %0, ptr noundef %1) #0 {
  %3 = tail call i32 @slurm_sort_int_list_asc(ptr noundef %0, ptr noundef %1) #8
  %.not = icmp eq i32 %3, 0
  br i1 %.not, label %4, label %12

4:                                                ; preds = %2
  %5 = getelementptr inbounds nuw i8, ptr %0, i64 8
  %6 = load ptr, ptr %5, align 8
  %7 = getelementptr inbounds nuw i8, ptr %6, i64 120
  %8 = getelementptr inbounds nuw i8, ptr %1, i64 8
  %9 = load ptr, ptr %8, align 8
  %10 = getelementptr inbounds nuw i8, ptr %9, i64 120
  %11 = tail call i32 @slurm_sort_uint32_list_asc(ptr noundef nonnull %7, ptr noundef nonnull %10) #8
  br label %12

12:                                               ; preds = %4, %2
  %.0 = phi i32 [ %3, %2 ], [ %11, %4 ]
  ret i32 %.0
}